target datalayout = "e-m:e-p270:32:32-p271:32:32-p272:64:64-i64:64-i128:128-f80:128-n8:16:32:64-S128"
target triple = "x86_64-pc-linux-gnu"

%"class.std::__cxx11::basic_string" = type { %"struct.std::__cxx11::basic_string<char>::_Alloc_hider", i64, %union.anon }
%"struct.std::__cxx11::basic_string<char>::_Alloc_hider" = type { ptr }
%union.anon = type { i64, [8 x i8] }

; Function Attrs: mustprogress uwtable
define noundef zeroext i1 @_ZN10open_spiel21StrContainsIgnoreCaseERKNSt7__cxx1112basic_stringIcSt11char_traitsIcESaIcEEES7_(ptr noundef nonnull align 8 dereferenceable(32) %0, ptr noundef nonnull align 8 dereferenceable(32) %1) #5 personality ptr @__gxx_personality_v0 {
  %3 = alloca ptr, align 8
  %4 = alloca ptr, align 8
  %5 = alloca %"class.std::__cxx11::basic_string", align 8
  %6 = alloca %"class.std::__cxx11::basic_string", align 8
  %7 = alloca ptr, align 8
  %8 = alloca i32, align 4
  %9 = alloca i32, align 4
  %10 = alloca i32, align 4
  store ptr %0, ptr %3, align 8
  store ptr %1, ptr %4, align 8
  %11 = load ptr, ptr %3, align 8
  call void @_ZNSt7__cxx1112basic_stringIcSt11char_traitsIcESaIcEEC1ERKS4_(ptr noundef nonnull align 8 dereferenceable(32) %5, ptr noundef nonnull align 8 dereferenceable(32) %11)
  %12 = load ptr, ptr %4, align 8
  invoke void @_ZNSt7__cxx1112basic_stringIcSt11char_traitsIcESaIcEEC1ERKS4_(ptr noundef nonnull align 8 dereferenceable(32) %6, ptr noundef nonnull align 8 dereferenceable(32) %12)
          to label %13 unwind label %35

13:                                               ; preds = %2
  store i32 0, ptr %9, align 4
  br label %14

14:                                               ; preds = %32, %13
  %15 = load i32, ptr %9, align 4
  %16 = sext i32 %15 to i64
  %17 = call noundef i64 @_ZNKSt7__cxx1112basic_stringIcSt11char_traitsIcESaIcEE4sizeEv(ptr noundef nonnull align 8 dereferenceable(32) %5) #3
  %18 = icmp ult i64 %16, %17
  br i1 %18, label %19, label %43

19:                                               ; preds = %14
  %20 = load i32, ptr %9, align 4
  %21 = sext i32 %20 to i64
  %22 = invoke noundef nonnull align 1 dereferenceable(1) ptr @_ZNSt7__cxx1112basic_stringIcSt11char_traitsIcESaIcEEixEm(ptr noundef nonnull align 8 dereferenceable(32) %5, i64 noundef %21)
          to label %23 unwind label %39

23:                                               ; preds = %19
  %24 = load i8, ptr %22, align 1
  %25 = sext i8 %24 to i32
  %26 = call i32 @tolower(i32 noundef %25) #19
  %27 = trunc i32 %26 to i8
  %28 = load i32, ptr %9, align 4
  %29 = sext i32 %28 to i64
  %30 = invoke noundef nonnull align 1 dereferenceable(1) ptr @_ZNSt7__cxx1112basic_stringIcSt11char_traitsIcESaIcEEixEm(ptr noundef nonnull align 8 dereferenceable(32) %5, i64 noundef %29)
          to label %31 unwind label %39

31:                                               ; preds = %23
  store i8 %27, ptr %30, align 1
  br label %32

32:                                               ; preds = %31
  %33 = load i32, ptr %9, align 4
  %34 = add nsw i32 %33, 1
  store i32 %34, ptr %9, align 4
  br label %14, !llvm.loop !9

35:                                               ; preds = %2
  %36 = landingpad { ptr, i32 }
          cleanup
  %37 = extractvalue { ptr, i32 } %36, 0
  store ptr %37, ptr %7, align 8
  %38 = extractvalue { ptr, i32 } %36, 1
  store i32 %38, ptr %8, align 4
  br label %68

39:                                               ; preds = %53, %49, %23, %19
  %40 = landingpad { ptr, i32 }
          cleanup
  %41 = extractvalue { ptr, i32 } %40, 0
  store ptr %41, ptr %7, align 8
  %42 = extractvalue { ptr, i32 } %40, 1
  store i32 %42, ptr %8, align 4
  call void @_ZNSt7__cxx1112basic_stringIcSt11char_traitsIcESaIcEED1Ev(ptr noundef nonnull align 8 dereferenceable(32) %6) #3
  br label %68

43:                                               ; preds = %14
  store i32 0, ptr %10, align 4
  br label %44

44:                                               ; preds = %62, %43
  %45 = load i32, ptr %10, align 4
  %46 = sext i32 %45 to i64
  %47 = call noundef i64 @_ZNKSt7__cxx1112basic_stringIcSt11char_traitsIcESaIcEE4sizeEv(ptr noundef nonnull align 8 dereferenceable(32) %6) #3
  %48 = icmp ult i64 %46, %47
  br i1 %48, label %49, label %65

49:                                               ; preds = %44
  %50 = load i32, ptr %10, align 4
  %51 = sext i32 %50 to i64
  %52 = invoke noundef nonnull align 1 dereferenceable(1) ptr @_ZNSt7__cxx1112basic_stringIcSt11char_traitsIcESaIcEEixEm(ptr noundef nonnull align 8 dereferenceable(32) %6, i64 noundef %51)
          to label %53 unwind label %39

53:                                               ; preds = %49
  %54 = load i8, ptr %52, align 1
  %55 = sext i8 %54 to i32
  %56 = call i32 @tolower(i32 noundef %55) #19
  %57 = trunc i32 %56 to i8
  %58 = load i32, ptr %10, align 4
  %59 = sext i32 %58 to i64
  %60 = invoke noundef nonnull align 1 dereferenceable(1) ptr @_ZNSt7__cxx1112basic_stringIcSt11char_traitsIcESaIcEEixEm(ptr noundef nonnull align 8 dereferenceable(32) %6, i64 noundef %59)
          to label %61 unwind label %39

61:                                               ; preds = %53
  store i8 %57, ptr %60, align 1
  br label %62

62:                                               ; preds = %61
  %63 = load i32, ptr %10, align 4
  %64 = add nsw i32 %63, 1
  store i32 %64, ptr %10, align 4
  br label %44, !llvm.loop !10

65:                                               ; preds = %44
  %66 = call noundef i64 @_ZNKSt7__cxx1112basic_stringIcSt11char_traitsIcESaIcEE4findERKS4_m(ptr noundef nonnull align 8 dereferenceable(32) %5, ptr noundef nonnull align 8 dereferenceable(32) %6, i64 noundef 0) #3
  %67 = icmp ne i64 %66, -1
  call void @_ZNSt7__cxx1112basic_stringIcSt11char_traitsIcESaIcEED1Ev(ptr noundef nonnull align 8 dereferenceable(32) %6) #3
  call void @_ZNSt7__cxx1112basic_stringIcSt11char_traitsIcESaIcEED1Ev(ptr noundef nonnull align 8 dereferenceable(32) %5) #3
  ret i1 %67

68:                                               ; preds = %39, %35
  call void @_ZNSt7__cxx1112basic_stringIcSt11char_traitsIcESaIcEED1Ev(ptr noundef nonnull align 8 dereferenceable(32) %5) #3
  br label %69

69:                                               ; preds = %68
  %70 = load ptr, ptr %7, align 8
  %71 = load i32, ptr %8, align 4
  %72 = insertvalue { ptr, i32 } poison, ptr %70, 0
  %73 = insertvalue { ptr, i32 } %72, i32 %71, 1
  resume { ptr, i32 } %73
}