; Function Attrs: mustprogress uwtable
define noundef zeroext i1 @_ZN10open_spiel21StrContainsIgnoreCaseERKNSt7__cxx1112basic_stringIcSt11char_traitsIcESaIcEEES7_(ptr noundef nonnull align 8 dereferenceable(32) %0, ptr noundef nonnull align 8 dereferenceable(32) %1) local_unnamed_addr #4 personality ptr @__gxx_personality_v0 {
  %3 = alloca %"class.std::__cxx11::basic_string", align 8
  %4 = alloca %"class.std::__cxx11::basic_string", align 8
  call void @_ZNSt7__cxx1112basic_stringIcSt11char_traitsIcESaIcEEC1ERKS4_(ptr noundef nonnull align 8 dereferenceable(32) %3, ptr noundef nonnull align 8 dereferenceable(32) %0)
  invoke void @_ZNSt7__cxx1112basic_stringIcSt11char_traitsIcESaIcEEC1ERKS4_(ptr noundef nonnull align 8 dereferenceable(32) %4, ptr noundef nonnull align 8 dereferenceable(32) %1)
          to label %.preheader17 unwind label %17

.preheader17:                                     ; preds = %2
  %5 = call noundef i64 @_ZNKSt7__cxx1112basic_stringIcSt11char_traitsIcESaIcEE4sizeEv(ptr noundef nonnull align 8 dereferenceable(32) %3) #21
  %.not = icmp eq i64 %5, 0
  br i1 %.not, label %.preheader, label %.lr.ph

.preheader:                                       ; preds = %13, %.preheader17
  %6 = call noundef i64 @_ZNKSt7__cxx1112basic_stringIcSt11char_traitsIcESaIcEE4sizeEv(ptr noundef nonnull align 8 dereferenceable(32) %4) #21
  %.not21 = icmp eq i64 %6, 0
  br i1 %.not21, label %._crit_edge, label %.lr.ph20

.lr.ph:                                           ; preds = %.preheader17, %13
  %indvars.iv = phi i64 [ %indvars.iv.next, %13 ], [ 0, %.preheader17 ]
  %7 = invoke noundef nonnull align 1 dereferenceable(1) ptr @_ZNSt7__cxx1112basic_stringIcSt11char_traitsIcESaIcEEixEm(ptr noundef nonnull align 8 dereferenceable(32) %3, i64 noundef %indvars.iv)
          to label %8 unwind label %.loopexit.split-lp

8:                                                ; preds = %.lr.ph
  %9 = load i8, ptr %7, align 1
  %10 = sext i8 %9 to i32
  %11 = call i32 @tolower(i32 noundef %10) #25
  %12 = invoke noundef nonnull align 1 dereferenceable(1) ptr @_ZNSt7__cxx1112basic_stringIcSt11char_traitsIcESaIcEEixEm(ptr noundef nonnull align 8 dereferenceable(32) %3, i64 noundef %indvars.iv)
          to label %13 unwind label %.loopexit.split-lp

13:                                               ; preds = %8
  %14 = trunc i32 %11 to i8
  store i8 %14, ptr %12, align 1
  %indvars.iv.next = add nuw nsw i64 %indvars.iv, 1
  %15 = call noundef i64 @_ZNKSt7__cxx1112basic_stringIcSt11char_traitsIcESaIcEE4sizeEv(ptr noundef nonnull align 8 dereferenceable(32) %3) #21
  %16 = icmp ugt i64 %15, %indvars.iv.next
  br i1 %16, label %.lr.ph, label %.preheader, !llvm.loop !14

17:                                               ; preds = %2
  %18 = landingpad { ptr, i32 }
          cleanup
  br label %32

.loopexit:                                        ; preds = %.lr.ph20, %21
  %lpad.loopexit = landingpad { ptr, i32 }
          cleanup
  br label %19

.loopexit.split-lp:                               ; preds = %.lr.ph, %8
  %lpad.loopexit.split-lp = landingpad { ptr, i32 }
          cleanup
  br label %19

19:                                               ; preds = %.loopexit.split-lp, %.loopexit
  %lpad.phi = phi { ptr, i32 } [ %lpad.loopexit, %.loopexit ], [ %lpad.loopexit.split-lp, %.loopexit.split-lp ]
  call void @_ZNSt7__cxx1112basic_stringIcSt11char_traitsIcESaIcEED1Ev(ptr noundef nonnull align 8 dereferenceable(32) %4) #21
  br label %32

.lr.ph20:                                         ; preds = %.preheader, %26
  %indvars.iv23 = phi i64 [ %indvars.iv.next24, %26 ], [ 0, %.preheader ]
  %20 = invoke noundef nonnull align 1 dereferenceable(1) ptr @_ZNSt7__cxx1112basic_stringIcSt11char_traitsIcESaIcEEixEm(ptr noundef nonnull align 8 dereferenceable(32) %4, i64 noundef %indvars.iv23)
          to label %21 unwind label %.loopexit

21:                                               ; preds = %.lr.ph20
  %22 = load i8, ptr %20, align 1
  %23 = sext i8 %22 to i32
  %24 = call i32 @tolower(i32 noundef %23) #25
  %25 = invoke noundef nonnull align 1 dereferenceable(1) ptr @_ZNSt7__cxx1112basic_stringIcSt11char_traitsIcESaIcEEixEm(ptr noundef nonnull align 8 dereferenceable(32) %4, i64 noundef %indvars.iv23)
          to label %26 unwind label %.loopexit

26:                                               ; preds = %21
  %27 = trunc i32 %24 to i8
  store i8 %27, ptr %25, align 1
  %indvars.iv.next24 = add nuw nsw i64 %indvars.iv23, 1
  %28 = call noundef i64 @_ZNKSt7__cxx1112basic_stringIcSt11char_traitsIcESaIcEE4sizeEv(ptr noundef nonnull align 8 dereferenceable(32) %4) #21
  %29 = icmp ugt i64 %28, %indvars.iv.next24
  br i1 %29, label %.lr.ph20, label %._crit_edge, !llvm.loop !15

._crit_edge:                                      ; preds = %26, %.preheader
  %30 = call noundef i64 @_ZNKSt7__cxx1112basic_stringIcSt11char_traitsIcESaIcEE4findERKS4_m(ptr noundef nonnull align 8 dereferenceable(32) %3, ptr noundef nonnull align 8 dereferenceable(32) %4, i64 noundef 0) #21
  %31 = icmp ne i64 %30, -1
  call void @_ZNSt7__cxx1112basic_stringIcSt11char_traitsIcESaIcEED1Ev(ptr noundef nonnull align 8 dereferenceable(32) %4) #21
  call void @_ZNSt7__cxx1112basic_stringIcSt11char_traitsIcESaIcEED1Ev(ptr noundef nonnull align 8 dereferenceable(32) %3) #21
  ret i1 %31

32:                                               ; preds = %19, %17
  %.pn = phi { ptr, i32 } [ %lpad.phi, %19 ], [ %18, %17 ]
  call void @_ZNSt7__cxx1112basic_stringIcSt11char_traitsIcESaIcEED1Ev(ptr noundef nonnull align 8 dereferenceable(32) %3) #21
  resume { ptr, i32 } %.pn
}